-----BEGIN CERTIFICATE-----
MIIC+DCCAeACCQDgkgZt2N/PojANBgkqhkiG9w0BAQUFADA+MQswCQYDVQQGEwJE
RTERMA8GA1UEBwwITXVlbnN0ZXIxDzANBgNVBAoMBlNlbGZDQTELMAkGA1UEAwwC
Q0EwHhcNMTMxMDE3MTc1MTExWhcNNDEwMzA0MTc1MTExWjA+MQswCQYDVQQGEwJE
RTERMA8GA1UEBwwITXVlbnN0ZXIxDzANBgNVBAoMBlNlbGZDQTELMAkGA1UEAwwC
Q0EwggEiMA0GCSqGSIb3DQEBAQUAA4IBDwAwggEKAoIBAQDW4P9Cd9MUaQBfFmMX
1RuNqDPgN2zOT6y/ANTNru5qHT9dOBRoEr1rJcqm0fI9m73NrFkDaCW9OPQviw4r
A33v4nT5pNbYQUK2fZu/8SuWH6cb9nhMhpvpoK4sIhCSxL2eRhgZBMqo/CZcQGqB
toXnT7ssYc6FlCWSQc957KWsVMIQOxhCRnj+dfL3CAyvFpkARiuTcaltPK50j8BG
b3r0crdZiP3b5juQ+L7DBSJ5maJk3Em0DGPB45uteZDg9qItFRS/NUJGkpneSkQh
9J6Fw/HYF2eo7/RWWHoVMLqPxRyu+Haxxk7gdud1a5658ZfJtBEf76obn1hZxPuL
XgZXAgMBAAEwDQYJKoZIhvcNAQEFBQADggEBAKHDmonmxC9RyL/PuLPDEJD+sahr
jH6roo3i8wYY5vT9kCTQLzc14tOFneAO43kFEN0dkpOdDRGX9L3A7brr/FXBT8CP
vbg3N7ag89CsxPA7L0/6uTt/Iuo7tVDkH0Md/Nrejy/dqzTp5ehQBHr4nGCKfPPD
kpMP0Zng0VZI7zLF6XcDbBzrHVw0fVYhVuOKJDBH1f+YScNGvzxfowU0589Te+UC
ZBrnerXjWPOKmtehj3a4kkCL0scH7qanSWZE2q/b2XzPzuDQ7cvp2xR8tb4hpNdC
mHwRoMTqEInu6qviFE5SdNMSXFZP30eNRYQsoi/yszjBNauLzW832h4/qno=
-----END CERTIFICATE-----
Certificate:
    Data:
        Version: 1 (0x0)
        Serial Number: 1 (0x1)
    Signature Algorithm: md5WithRSAEncryption
        Issuer: C=DE, L=Muenster, O=SelfCA, CN=CA
        Validity
            Not Before: Oct 17 17:51:11 2013 GMT
            Not After : Mar  4 17:51:11 2041 GMT
        Subject: C=DE, L=Muenster, O=server, CN=server
        Subject Public Key Info:
            Public Key Algorithm: rsaEncryption
                Public-Key: (2048 bit)
                Modulus:
                    00:c1:43:72:00:09:59:62:30:a1:fd:c3:d2:5a:2a:
                    f5:40:9e:46:e8:47:7c:ac:40:e7:5a:6b:e1:e7:c6:
                    1e:43:c9:04:4e:49:c9:80:a9:74:d8:73:42:97:90:
                    85:19:bf:66:a1:55:94:d0:e0:ec:25:c7:e7:ca:e2:
                    17:a6:17:8b:c4:5b:3d:3e:c2:dd:c5:5e:a1:21:56:
                    41:4c:2a:01:d6:66:e1:8e:d0:0f:4b:83:28:bc:46:
                    c6:66:2e:80:bb:4c:9a:45:a1:88:70:00:fd:1d:b2:
                    24:02:b0:c2:78:b9:6a:4d:0c:3a:50:29:6c:8f:7b:
                    2d:fc:77:1c:fa:29:4c:2d:4e:29:7f:0c:7c:38:62:
                    96:60:b3:b6:79:66:92:a3:f4:4c:8f:ee:86:53:52:
                    53:fb:0b:67:c8:24:71:fa:1e:38:0b:9a:cd:26:2b:
                    cd:f8:25:1b:a0:61:d0:cb:12:29:ec:02:e7:52:3f:
                    23:6f:85:39:7a:15:31:30:7f:ba:f3:f4:9f:0c:7c:
                    b4:10:56:c0:51:f8:a3:59:4f:89:0f:bf:ee:3e:22:
                    7c:06:07:9e:c2:3a:4a:3b:d6:1b:c6:5b:51:49:53:
                    93:64:60:2d:4b:f2:4b:f8:f9:cb:1c:75:4e:bf:7c:
                    b4:b2:8a:bc:4f:47:79:ec:1d:34:af:e4:2f:70:4d:
                    bf:c5
                Exponent: 65537 (0x10001)
    Signature Algorithm: md5WithRSAEncryption
         00:08:b2:06:33:24:d7:ee:7a:00:3c:63:45:c4:b3:bd:f9:3c:
         22:80:75:b8:06:bc:d0:42:67:34:1f:24:28:b3:70:13:66:1c:
         cf:04:b0:9d:22:cd:62:5c:65:cb:34:27:70:cb:6d:ff:6e:b5:
         9b:c1:ae:09:48:d4:c6:1e:61:9c:9a:75:29:b2:1b:c4:72:7d:
         2b:12:24:e1:7f:d7:00:1b:9a:1a:91:c1:b4:3d:5c:0d:ea:03:
         4e:dc:c8:a4:d6:72:61:3c:87:41:02:2d:f0:df:05:94:7d:43:
         fb:96:19:a2:f0:17:06:93:b6:24:1e:e0:f4:d7:aa:8c:a5:20:
         0f:4d:fa:79:7d:d6:15:1f:05:ce:d5:9b:d6:ef:0e:54:31:80:
         f0:65:b0:5a:96:fc:42:78:c4:bc:d8:c5:af:b0:29:1b:95:ad:
         17:62:a1:a1:a3:8e:f5:40:34:b6:e4:d3:05:fe:de:0f:9e:78:
         20:ac:1e:be:fb:bf:4d:68:73:ad:9b:21:ed:95:52:c4:c3:fd:
         a4:a7:f4:6b:ba:5b:0b:44:89:c0:89:91:72:f2:69:62:ce:22:
         df:d3:c0:97:44:10:e4:56:37:81:32:13:67:27:38:8b:29:be:
         28:8e:64:6d:df:98:e5:f8:06:4b:13:6f:0d:d8:ff:c2:13:1e:
         fa:4d:e6:8f
-----BEGIN CERTIFICATE-----
MIIC9DCCAdwCAQEwDQYJKoZIhvcNAQEEBQAwPjELMAkGA1UEBhMCREUxETAPBgNV
BAcMCE11ZW5zdGVyMQ8wDQYDVQQKDAZTZWxmQ0ExCzAJBgNVBAMMAkNBMB4XDTEz
MTAxNzE3NTExMVoXDTQxMDMwNDE3NTExMVowQjELMAkGA1UEBhMCREUxETAPBgNV
BAcMCE11ZW5zdGVyMQ8wDQYDVQQKDAZzZXJ2ZXIxDzANBgNVBAMMBnNlcnZlcjCC
ASIwDQYJKoZIhvcNAQEBBQADggEPADCCAQoCggEBAMFDcgAJWWIwof3D0loq9UCe
RuhHfKxA51pr4efGHkPJBE5JyYCpdNhzQpeQhRm/ZqFVlNDg7CXH58riF6YXi8Rb
PT7C3cVeoSFWQUwqAdZm4Y7QD0uDKLxGxmYugLtMmkWhiHAA/R2yJAKwwni5ak0M
OlApbI97Lfx3HPopTC1OKX8MfDhilmCztnlmkqP0TI/uhlNSU/sLZ8gkcfoeOAua
zSYrzfglG6Bh0MsSKewC51I/I2+FOXoVMTB/uvP0nwx8tBBWwFH4o1lPiQ+/7j4i
fAYHnsI6SjvWG8ZbUUlTk2RgLUvyS/j5yxx1Tr98tLKKvE9HeewdNK/kL3BNv8UC
AwEAATANBgkqhkiG9w0BAQQFAAOCAQEAAAiyBjMk1+56ADxjRcSzvfk8IoB1uAa8
0EJnNB8kKLNwE2YczwSwnSLNYlxlyzQncMtt/261m8GuCUjUxh5hnJp1KbIbxHJ9
KxIk4X/XABuaGpHBtD1cDeoDTtzIpNZyYTyHQQIt8N8FlH1D+5YZovAXBpO2JB7g
9NeqjKUgD036eX3WFR8FztWb1u8OVDGA8GWwWpb8QnjEvNjFr7ApG5WtF2KhoaOO
9UA0tuTTBf7eD554IKwevvu/TWhzrZsh7ZVSxMP9pKf0a7pbC0SJwImRcvJpYs4i
39PAl0QQ5FY3gTITZyc4iym+KI5kbd+Y5fgGSxNvDdj/whMe+k3mjw==
-----END CERTIFICATE-----
