Certificate:
    Data:
        Version: 1 (0x0)
        Serial Number: 2 (0x2)
    Signature Algorithm: md5WithRSAEncryption
        Issuer: C=DE, L=Muenster, O=SelfCA, CN=CA
        Validity
            Not Before: Oct 17 17:51:11 2013 GMT
            Not After : Mar  4 17:51:11 2041 GMT
        Subject: C=DE, L=Muenster, O=client1, CN=client1
        Subject Public Key Info:
            Public Key Algorithm: rsaEncryption
                Public-Key: (2048 bit)
                Modulus:
                    00:c1:09:37:54:90:a4:cb:8f:0f:23:b6:f2:d7:54:
                    c2:aa:0c:0e:5e:16:29:40:ea:48:60:87:fa:78:ef:
                    66:ef:64:ff:e4:c9:18:d4:fb:6c:83:98:52:b9:a7:
                    b0:fa:e9:54:93:27:3e:1a:c0:e9:55:b6:2d:b4:3b:
                    ed:07:fd:39:81:5d:26:4c:a9:63:a1:12:16:ca:63:
                    9a:ee:35:0e:f1:57:dc:5c:fd:be:7f:61:92:5a:12:
                    12:52:4f:d8:6b:55:08:5c:30:66:1c:26:4b:d8:63:
                    8d:52:b5:8c:f1:cf:a3:30:43:1b:a8:c4:be:dc:a8:
                    6a:82:20:ac:c1:11:db:7e:f6:db:f6:3c:e3:e4:90:
                    cf:e1:a4:f5:09:6d:32:36:6f:8f:7b:ad:00:fe:76:
                    d2:a8:8c:b1:1f:48:56:5a:86:d0:ed:cc:93:43:b7:
                    33:b3:40:8c:8a:55:4b:30:e0:f9:8a:4d:03:b1:00:
                    6d:32:e9:09:6e:a7:ac:52:a5:84:87:fe:bc:ad:53:
                    d2:b2:d0:ac:27:d5:04:0e:7e:f0:e7:25:31:6e:ed:
                    9a:9d:f1:bb:2b:d0:01:94:0e:ed:58:a6:09:dd:46:
                    1b:17:91:e4:14:3c:ae:71:b3:79:a5:de:06:26:ab:
                    f9:e6:df:39:bf:68:d0:98:60:af:03:63:b7:73:96:
                    d5:71
                Exponent: 65537 (0x10001)
    Signature Algorithm: md5WithRSAEncryption
         97:ae:cc:ef:ae:a3:7c:e1:77:56:00:15:66:1e:33:2e:e4:ea:
         40:45:bf:65:60:4b:e7:9c:49:c3:94:be:87:ad:5a:a3:9d:37:
         de:3b:ec:ca:2b:6a:04:07:e8:54:4d:9b:03:1b:04:f1:5c:ad:
         00:02:03:b1:79:67:27:4e:cf:69:f7:7d:af:ce:91:ab:d2:34:
         f7:12:e1:f2:6f:25:10:06:23:96:28:5f:ef:21:b1:c6:63:30:
         fa:9b:54:cb:67:86:56:67:b8:f0:46:05:ef:25:76:b8:41:5c:
         c4:3a:41:a8:ea:20:9a:f0:6d:be:4a:ff:75:00:41:b8:9e:c5:
         9c:6c:3a:00:1f:32:33:bc:4e:34:ce:16:4f:09:56:a3:fc:de:
         e5:e2:d2:87:94:ff:f4:c7:3c:6c:25:1a:bb:c6:6c:d5:f5:03:
         11:85:19:b0:ae:07:35:87:ac:bc:a6:b5:32:21:2c:3c:c5:94:
         3b:e7:52:1a:98:cc:0d:2b:ac:0f:ff:fb:5f:6d:6c:21:97:ec:
         95:ba:b0:4c:07:85:c6:b2:bf:e5:03:32:aa:a0:ec:b7:bd:1c:
         45:66:62:e4:de:ae:78:da:0b:8d:31:7d:ba:0b:8e:38:ac:f4:
         19:aa:0d:ca:74:ef:9d:4c:e7:10:80:d8:43:56:61:f4:d2:7a:
         b9:83:ee:01
-----BEGIN CERTIFICATE-----
MIIC9jCCAd4CAQIwDQYJKoZIhvcNAQEEBQAwPjELMAkGA1UEBhMCREUxETAPBgNV
BAcMCE11ZW5zdGVyMQ8wDQYDVQQKDAZTZWxmQ0ExCzAJBgNVBAMMAkNBMB4XDTEz
MTAxNzE3NTExMVoXDTQxMDMwNDE3NTExMVowRDELMAkGA1UEBhMCREUxETAPBgNV
BAcMCE11ZW5zdGVyMRAwDgYDVQQKDAdjbGllbnQxMRAwDgYDVQQDDAdjbGllbnQx
MIIBIjANBgkqhkiG9w0BAQEFAAOCAQ8AMIIBCgKCAQEAwQk3VJCky48PI7by11TC
qgwOXhYpQOpIYIf6eO9m72T/5MkY1Ptsg5hSuaew+ulUkyc+GsDpVbYttDvtB/05
gV0mTKljoRIWymOa7jUO8VfcXP2+f2GSWhISUk/Ya1UIXDBmHCZL2GONUrWM8c+j
MEMbqMS+3KhqgiCswRHbfvbb9jzj5JDP4aT1CW0yNm+Pe60A/nbSqIyxH0hWWobQ
7cyTQ7czs0CMilVLMOD5ik0DsQBtMukJbqesUqWEh/68rVPSstCsJ9UEDn7w5yUx
bu2anfG7K9ABlA7tWKYJ3UYbF5HkFDyucbN5pd4GJqv55t85v2jQmGCvA2O3c5bV
cQIDAQABMA0GCSqGSIb3DQEBBAUAA4IBAQCXrszvrqN84XdWABVmHjMu5OpARb9l
YEvnnEnDlL6HrVqjnTfeO+zKK2oEB+hUTZsDGwTxXK0AAgOxeWcnTs9p932vzpGr
0jT3EuHybyUQBiOWKF/vIbHGYzD6m1TLZ4ZWZ7jwRgXvJXa4QVzEOkGo6iCa8G2+
Sv91AEG4nsWcbDoAHzIzvE40zhZPCVaj/N7l4tKHlP/0xzxsJRq7xmzV9QMRhRmw
rgc1h6y8prUyISw8xZQ751IamMwNK6wP//tfbWwhl+yVurBMB4XGsr/lAzKqoOy3
vRxFZmLk3q542guNMX26C444rPQZqg3KdO+dTOcQgNhDVmH00nq5g+4B
-----END CERTIFICATE-----
